; Function Attrs: mustprogress uwtable
define internal fastcc void @"_ZZN3tev10HelpWindowC1EPN7nanogui6WidgetEbNSt3__18functionIFvvEEEENK3$_0clES3_NS4_12basic_stringIcNS4_11char_traitsIcEENS4_9allocatorIcEEEESE_"(ptr noundef %0, ptr noundef %1, ptr noundef %2) unnamed_addr #3 align 2 personality ptr @__gxx_personality_v0 {
  %4 = alloca %"class.std::__1::basic_string", align 8
  %5 = alloca %"class.std::__1::basic_string", align 8
  %6 = tail call noalias noundef nonnull dereferenceable(136) ptr @_Znwm(i64 noundef 136) #18
  invoke void @_ZN7nanogui6WidgetC1EPS0_(ptr noundef nonnull align 8 dereferenceable(132) %6, ptr noundef %0)
          to label %7 unwind label %23

7:                                                ; preds = %3
  %8 = tail call noalias noundef nonnull dereferenceable(32) ptr @_Znwm(i64 noundef 32) #18
  invoke void @_ZN7nanogui9BoxLayoutC1ENS_11OrientationENS_9AlignmentEii(ptr noundef nonnull align 8 dereferenceable(28) %8, i32 noundef 0, i8 noundef zeroext 3, i32 noundef 0, i32 noundef 10)
          to label %9 unwind label %25

9:                                                ; preds = %7
  %10 = getelementptr inbounds i8, ptr %6, i64 32
  %11 = load ptr, ptr %10, align 8
  %.not.i.i = icmp eq ptr %11, %8
  br i1 %.not.i.i, label %_ZN7nanogui6Widget10set_layoutEPNS_6LayoutE.exit, label %12

12:                                               ; preds = %9
  invoke void @_ZNK7nanogui6Object7inc_refEv(ptr noundef nonnull align 8 dereferenceable(12) %8)
          to label %thread-pre-split.i.i unwind label %15

thread-pre-split.i.i:                             ; preds = %12
  %.pr.i.i = load ptr, ptr %10, align 8
  %.not7.i.i = icmp eq ptr %.pr.i.i, null
  br i1 %.not7.i.i, label %14, label %13

13:                                               ; preds = %thread-pre-split.i.i
  tail call void @_ZNK7nanogui6Object7dec_refEb(ptr noundef nonnull align 8 dereferenceable(12) %.pr.i.i, i1 noundef zeroext true) #17
  br label %14

14:                                               ; preds = %13, %thread-pre-split.i.i
  store ptr %8, ptr %10, align 8
  br label %_ZN7nanogui6Widget10set_layoutEPNS_6LayoutE.exit

15:                                               ; preds = %12
  %16 = landingpad { ptr, i32 }
          catch ptr null
  %17 = extractvalue { ptr, i32 } %16, 0
  tail call void @__clang_call_terminate(ptr %17) #19
  unreachable

_ZN7nanogui6Widget10set_layoutEPNS_6LayoutE.exit: ; preds = %9, %14
  %18 = tail call noalias noundef nonnull dereferenceable(200) ptr @_Znwm(i64 noundef 200) #18
  invoke void @_ZNSt3__112basic_stringIcNS_11char_traitsIcEENS_9allocatorIcEEE6__initEPKcm(ptr noundef nonnull align 8 dereferenceable(24) %4, ptr noundef nonnull @.str.105, i64 noundef 4)
          to label %_ZNSt3__112basic_stringIcNS_11char_traitsIcEENS_9allocatorIcEEEC2B8ne190000ILi0EEEPKc.exit unwind label %27

_ZNSt3__112basic_stringIcNS_11char_traitsIcEENS_9allocatorIcEEEC2B8ne190000ILi0EEEPKc.exit: ; preds = %_ZN7nanogui6Widget10set_layoutEPNS_6LayoutE.exit
  invoke void @_ZN7nanogui5LabelC1EPNS_6WidgetERKNSt3__112basic_stringIcNS3_11char_traitsIcEENS3_9allocatorIcEEEESB_i(ptr noundef nonnull align 8 dereferenceable(200) %18, ptr noundef nonnull %6, ptr noundef nonnull align 8 dereferenceable(24) %2, ptr noundef nonnull align 8 dereferenceable(24) %4, i32 noundef -1)
          to label %19 unwind label %29

19:                                               ; preds = %_ZNSt3__112basic_stringIcNS_11char_traitsIcEENS_9allocatorIcEEEC2B8ne190000ILi0EEEPKc.exit
  call void @_ZNSt3__112basic_stringIcNS_11char_traitsIcEENS_9allocatorIcEEED1Ev(ptr noundef nonnull align 8 dereferenceable(24) %4) #17
  %20 = getelementptr inbounds i8, ptr %18, i64 56
  store i32 250, ptr %20, align 4
  %21 = call noalias noundef nonnull dereferenceable(200) ptr @_Znwm(i64 noundef 200) #18
  invoke void @_ZNSt3__112basic_stringIcNS_11char_traitsIcEENS_9allocatorIcEEE6__initEPKcm(ptr noundef nonnull align 8 dereferenceable(24) %5, ptr noundef nonnull @.str.6, i64 noundef 9)
          to label %_ZNSt3__112basic_stringIcNS_11char_traitsIcEENS_9allocatorIcEEEC2B8ne190000ILi0EEEPKc.exit15 unwind label %32

_ZNSt3__112basic_stringIcNS_11char_traitsIcEENS_9allocatorIcEEEC2B8ne190000ILi0EEEPKc.exit15: ; preds = %19
  invoke void @_ZN7nanogui5LabelC1EPNS_6WidgetERKNSt3__112basic_stringIcNS3_11char_traitsIcEENS3_9allocatorIcEEEESB_i(ptr noundef nonnull align 8 dereferenceable(200) %21, ptr noundef nonnull %6, ptr noundef nonnull align 8 dereferenceable(24) %1, ptr noundef nonnull align 8 dereferenceable(24) %5, i32 noundef -1)
          to label %22 unwind label %34

22:                                               ; preds = %_ZNSt3__112basic_stringIcNS_11char_traitsIcEENS_9allocatorIcEEEC2B8ne190000ILi0EEEPKc.exit15
  call void @_ZNSt3__112basic_stringIcNS_11char_traitsIcEENS_9allocatorIcEEED1Ev(ptr noundef nonnull align 8 dereferenceable(24) %5) #17
  ret void

23:                                               ; preds = %3
  %24 = landingpad { ptr, i32 }
          cleanup
  tail call void @_ZdlPv(ptr noundef nonnull %6) #20
  br label %37

25:                                               ; preds = %7
  %26 = landingpad { ptr, i32 }
          cleanup
  tail call void @_ZdlPv(ptr noundef nonnull %8) #20
  br label %37

27:                                               ; preds = %_ZN7nanogui6Widget10set_layoutEPNS_6LayoutE.exit
  %28 = landingpad { ptr, i32 }
          cleanup
  br label %31

29:                                               ; preds = %_ZNSt3__112basic_stringIcNS_11char_traitsIcEENS_9allocatorIcEEEC2B8ne190000ILi0EEEPKc.exit
  %30 = landingpad { ptr, i32 }
          cleanup
  call void @_ZNSt3__112basic_stringIcNS_11char_traitsIcEENS_9allocatorIcEEED1Ev(ptr noundef nonnull align 8 dereferenceable(24) %4) #17
  br label %31

31:                                               ; preds = %27, %29
  %.pn = phi { ptr, i32 } [ %30, %29 ], [ %28, %27 ]
  call void @_ZdlPv(ptr noundef nonnull %18) #20
  br label %37

32:                                               ; preds = %19
  %33 = landingpad { ptr, i32 }
          cleanup
  br label %36

34:                                               ; preds = %_ZNSt3__112basic_stringIcNS_11char_traitsIcEENS_9allocatorIcEEEC2B8ne190000ILi0EEEPKc.exit15
  %35 = landingpad { ptr, i32 }
          cleanup
  call void @_ZNSt3__112basic_stringIcNS_11char_traitsIcEENS_9allocatorIcEEED1Ev(ptr noundef nonnull align 8 dereferenceable(24) %5) #17
  br label %36

36:                                               ; preds = %32, %34
  %.pn12 = phi { ptr, i32 } [ %35, %34 ], [ %33, %32 ]
  call void @_ZdlPv(ptr noundef nonnull %21) #20
  br label %37

37:                                               ; preds = %36, %31, %25, %23
  %.pn12.pn = phi { ptr, i32 } [ %.pn12, %36 ], [ %.pn, %31 ], [ %26, %25 ], [ %24, %23 ]
  resume { ptr, i32 } %.pn12.pn
}